Certificate:
    Data:
        Version: 1 (0x0)
        Serial Number: 1210816105 (0x482b9669)
        Signature Algorithm: md5WithRSAEncryption
        Issuer: DC=gov, DC=nasa, DC=jpl, CN=cancer.jpl.nasa.gov
        Validity
            Not Before: May 15 01:48:25 2008 GMT
            Not After : May 15 01:48:25 2010 GMT
        Subject: DC=gov, DC=nasa, DC=jpl, CN=cancer.jpl.nasa.gov
        Subject Public Key Info:
            Public Key Algorithm: rsaEncryption
            RSA Public Key: (1024 bit)
                Modulus (1024 bit):
                    00:ab:46:48:a6:38:60:9b:c1:53:09:fe:0c:88:18:
                    a4:4f:55:80:7f:a1:e4:3a:99:68:fa:47:6f:81:6d:
                    b1:03:9f:c6:ca:f8:73:fd:d1:33:d1:4a:34:85:cd:
                    00:b4:7b:ed:3f:56:56:72:7b:5f:ad:f7:a4:69:ff:
                    f9:84:c2:17:25:36:7c:84:49:d6:eb:f4:30:0e:f2:
                    87:9d:e8:37:60:12:38:1f:f0:62:75:b4:c8:08:f1:
                    84:5e:ff:b6:0e:53:19:33:f6:cc:9a:fe:14:0f:04:
                    eb:6b:36:dc:df:31:f3:dd:f3:ec:50:e6:df:29:21:
                    71:7b:82:b4:54:73:e3:a4:3b
                Exponent: 65537 (0x10001)
    Signature Algorithm: md5WithRSAEncryption
        20:51:a1:c0:eb:3c:2f:93:e0:d6:6c:26:5d:87:4b:80:19:af:
        a1:70:66:1e:4e:f6:76:58:4b:99:1e:92:7e:38:d2:fd:c6:ac:
        1b:73:cc:4c:ab:f7:3f:e8:c4:67:4e:fb:2d:36:56:e9:11:0b:
        ac:17:6b:d2:d0:44:44:15:c4:ce:0a:9b:66:37:e6:06:e2:5e:
        2a:11:d5:4d:b6:fb:a1:2c:45:5e:aa:1c:06:21:88:1e:e4:7c:
        7c:68:e6:11:6b:0c:0e:e0:89:b8:86:5b:f6:33:1f:e5:e2:0d:
        82:23:ea:00:4b:21:0a:be:b0:91:4c:6d:18:50:48:13:b2:0c:
        9f:5a
-----BEGIN CERTIFICATE-----
MIICLjCCAZcCBEgrlmkwDQYJKoZIhvcNAQEEBQAwXjETMBEGCgmSJomT8ixkARkW
A2dvdjEUMBIGCgmSJomT8ixkARkWBG5hc2ExEzARBgoJkiaJk/IsZAEZFgNqcGwx
HDAaBgNVBAMTE2NhbmNlci5qcGwubmFzYS5nb3YwHhcNMDgwNTE1MDE0ODI1WhcN
MTAwNTE1MDE0ODI1WjBeMRMwEQYKCZImiZPyLGQBGRYDZ292MRQwEgYKCZImiZPy
LGQBGRYEbmFzYTETMBEGCgmSJomT8ixkARkWA2pwbDEcMBoGA1UEAxMTY2FuY2Vy
LmpwbC5uYXNhLmdvdjCBnzANBgkqhkiG9w0BAQEFAAOBjQAwgYkCgYEAq0ZIpjhg
m8FTCf4MiBikT1WAf6HkOplo+kdvgW2xA5/Gyvhz/dEz0Uo0hc0AtHvtP1ZWcntf
rfekaf/5hMIXJTZ8hEnW6/QwDvKHneg3YBI4H/BidbTICPGEXv+2DlMZM/bMmv4U
DwTrazbc3zHz3fPsUObfKSFxe4K0VHPjpDsCAwEAATANBgkqhkiG9w0BAQQFAAOB
gQAgUaHA6zwvk+DWbCZdh0uAGa+hcGYeTvZ2WEuZHpJ+ONL9xqwbc8xMq/c/6MRn
TvstNlbpEQusF2vS0EREFcTOCptmN+YG4l4qEdVNtvuhLEVeqhwGIYge5Hx8aOYR
awwO4Im4hlv2Mx/l4g2CI+oASyEKvrCRTG0YUEgTsgyfWg==
-----END CERTIFICATE-----
